; Function Attrs: mustprogress uwtable
define hidden void @_ZN6Assimp7Collada11ToCamelCaseERNSt7__cxx1112basic_stringIcSt11char_traitsIcESaIcEEE(ptr noundef nonnull align 8 dereferenceable(32) %0) local_unnamed_addr #0 personality ptr @__gxx_personality_v0 {
  %2 = getelementptr inbounds nuw i8, ptr %0, i64 8
  %3 = load i64, ptr %2, align 8
  %4 = icmp eq i64 %3, 0
  br i1 %4, label %.loopexit, label %5

5:                                                ; preds = %1
  %6 = load ptr, ptr %0, align 8
  %7 = load i8, ptr %6, align 1
  %8 = add i8 %7, -97
  %or.cond.i = icmp ult i8 %8, 26
  %9 = add nsw i8 %7, -32
  %10 = select i1 %or.cond.i, i8 %9, i8 %7
  store i8 %10, ptr %6, align 1
  %11 = getelementptr inbounds nuw i8, ptr %6, i64 1
  %12 = load ptr, ptr %0, align 8
  %13 = load i64, ptr %2, align 8
  %14 = getelementptr inbounds nuw i8, ptr %12, i64 %13
  %.not22 = icmp eq ptr %11, %14
  br i1 %.not22, label %.loopexit, label %.lr.ph

.lr.ph:                                           ; preds = %5, %35
  %15 = phi ptr [ %36, %35 ], [ %12, %5 ]
  %.sroa.09.023 = phi ptr [ %.sroa.09.1, %35 ], [ %11, %5 ]
  %16 = load i8, ptr %.sroa.09.023, align 1
  %17 = icmp eq i8 %16, 95
  br i1 %17, label %18, label %30

18:                                               ; preds = %.lr.ph
  %19 = ptrtoint ptr %.sroa.09.023 to i64
  %20 = ptrtoint ptr %15 to i64
  %21 = sub i64 %19, %20
  tail call void @_ZNSt7__cxx1112basic_stringIcSt11char_traitsIcESaIcEE8_M_eraseEmm(ptr noundef nonnull align 8 dereferenceable(32) %0, i64 noundef %21, i64 noundef 1)
  %22 = load ptr, ptr %0, align 8
  %23 = getelementptr inbounds nuw i8, ptr %22, i64 %21
  %24 = load i64, ptr %2, align 8
  %.not21 = icmp samesign eq i64 %21, %24
  br i1 %.not21, label %35, label %25

25:                                               ; preds = %18
  %26 = load i8, ptr %23, align 1
  %27 = add i8 %26, -97
  %or.cond.i5 = icmp ult i8 %27, 26
  %28 = add nsw i8 %26, -32
  %29 = select i1 %or.cond.i5, i8 %28, i8 %26
  store i8 %29, ptr %23, align 1
  br label %35

30:                                               ; preds = %.lr.ph
  %31 = add i8 %16, -65
  %or.cond.i6 = icmp ult i8 %31, 26
  %32 = add nuw nsw i8 %16, 32
  %33 = select i1 %or.cond.i6, i8 %32, i8 %16
  store i8 %33, ptr %.sroa.09.023, align 1
  %34 = getelementptr inbounds nuw i8, ptr %.sroa.09.023, i64 1
  br label %35

35:                                               ; preds = %18, %25, %30
  %.sroa.09.1 = phi ptr [ %23, %25 ], [ %23, %18 ], [ %34, %30 ]
  %36 = load ptr, ptr %0, align 8
  %37 = load i64, ptr %2, align 8
  %38 = getelementptr inbounds nuw i8, ptr %36, i64 %37
  %.not = icmp eq ptr %.sroa.09.1, %38
  br i1 %.not, label %.loopexit, label %.lr.ph, !llvm.loop !9

.loopexit:                                        ; preds = %35, %5, %1
  ret void
}